target datalayout = "e-m:e-p270:32:32-p271:32:32-p272:64:64-i64:64-i128:128-f80:128-n8:16:32:64-S128"
target triple = "x86_64-pc-linux-gnu"

%struct.Curl_easy = type { i32, i64, ptr, ptr, ptr, %struct.Curl_llist_element, %struct.Curl_llist_element, i32, i32, %struct.Curl_message, %struct.easy_pollset, %struct.Names, ptr, ptr, ptr, %struct.SingleRequest, %struct.UserDefined, ptr, ptr, %struct.Progress, %struct.UrlState, ptr, %struct.PureInfo, %struct.curl_tlssessioninfo }
%struct.Curl_llist_element = type { ptr, ptr, ptr }
%struct.Curl_message = type { %struct.Curl_llist_element, %struct.CURLMsg }
%struct.CURLMsg = type { i32, ptr, %union.anon }
%union.anon = type { ptr }
%struct.easy_pollset = type { [5 x i32], i32, [5 x i8] }
%struct.Names = type { ptr, i32 }
%struct.SingleRequest = type <{ i64, i64, i64, i64, i64, %struct.curltime, i32, i32, i32, i32, i64, i32, i32, %struct.curltime, i32, i32, ptr, i64, i64, ptr, ptr, i64, ptr, %union.anon.0, ptr, [2 x i8], i8, i16, [3 x i8] }>
%struct.curltime = type { i64, i32 }
%union.anon.0 = type { ptr }
%struct.UserDefined = type <{ ptr, ptr, ptr, ptr, ptr, ptr, i16, [6 x i8], i64, i64, i64, ptr, ptr, i64, i16, i16, [4 x i8], ptr, ptr, ptr, ptr, ptr, ptr, ptr, ptr, ptr, ptr, ptr, ptr, ptr, ptr, ptr, ptr, ptr, ptr, ptr, ptr, ptr, ptr, ptr, i32, i32, i32, i32, i64, i64, i64, i64, i64, i64, i64, i64, ptr, ptr, %struct.curl_mimepart, ptr, ptr, i64, i8, i8, i8, [5 x i8], %struct.ssl_config_data, %struct.ssl_config_data, ptr, i16, i8, i8, [4 x i8], %struct.ssl_general_config, i32, i32, i32, [4 x i8], ptr, ptr, i8, [7 x i8], i64, i8, i8, i8, i8, i32, ptr, ptr, ptr, i8, i8, [2 x i8], i32, [80 x ptr], [8 x ptr], i32, i32, i32, [4 x i8], ptr, ptr, ptr, ptr, ptr, i8, [3 x i8], i32, i32, [4 x i8], i64, %struct.Curl_data_priority, ptr, ptr, i64, ptr, ptr, ptr, ptr, ptr, i8, [3 x i8], i32, i8, i8, i56, [6 x i8] }>
%struct.curl_mimepart = type { ptr, ptr, i32, i32, ptr, ptr, ptr, ptr, ptr, ptr, ptr, ptr, ptr, ptr, ptr, i64, %struct.mime_state, ptr, %struct.mime_encoder_state, i64 }
%struct.mime_state = type { i32, ptr, i64 }
%struct.mime_encoder_state = type { i64, i64, i64, [256 x i8] }
%struct.ssl_config_data = type { %struct.ssl_primary_config, i64, ptr, ptr, ptr, ptr, ptr, ptr, ptr, i8 }
%struct.ssl_primary_config = type { ptr, ptr, ptr, ptr, ptr, ptr, ptr, ptr, ptr, ptr, ptr, ptr, i8, i32, i8, i8 }
%struct.ssl_general_config = type { i64, i32 }
%struct.Curl_data_priority = type { ptr, ptr, i32, i8 }
%struct.Progress = type { i64, i64, i64, i64, i64, i64, i32, i32, i64, i64, i64, i64, i64, i64, i64, i64, i64, i64, %struct.curltime, %struct.curltime, %struct.curltime, %struct.curltime, %struct.curltime, i64, %struct.curltime, i64, [6 x i64], [6 x %struct.curltime], i32, i8 }
%struct.UrlState = type { ptr, %struct.curltime, i64, i64, %struct.dynbuf, ptr, ptr, ptr, i64, ptr, i32, i32, i32, ptr, i64, [3 x %struct.tempbuf], i32, i32, ptr, i64, i32, ptr, %struct.digestdata, %struct.digestdata, %struct.auth, %struct.auth, %struct.Curl_async, ptr, %struct.curltime, %struct.Curl_tree, %struct.Curl_llist, [15 x %struct.time_node], ptr, i8, i64, ptr, i64, i64, %struct.Curl_data_priority, ptr, ptr, ptr, %struct.urlpieces, ptr, ptr, ptr, ptr, ptr, i64, %struct.dynbuf, %struct.Curl_llist, [2 x %struct.curl_header], ptr, i32, ptr, %struct.dynamically_allocated_data, i8, i8, i8, i8, i24 }
%struct.tempbuf = type { %struct.dynbuf, i32, i8 }
%struct.digestdata = type { ptr, ptr, ptr, ptr, ptr, ptr, i32, i8, i8 }
%struct.auth = type { i64, i64, i64, i8 }
%struct.Curl_async = type { ptr, ptr, ptr, ptr, i32, i32, i8 }
%struct.Curl_tree = type { ptr, ptr, ptr, ptr, %struct.curltime, ptr }
%struct.time_node = type { %struct.Curl_llist_element, %struct.curltime, i32 }
%struct.urlpieces = type { ptr, ptr, ptr, ptr, ptr, ptr, ptr, ptr }
%struct.dynbuf = type { ptr, i64, i64, i64 }
%struct.Curl_llist = type { ptr, ptr, ptr, i64 }
%struct.curl_header = type { ptr, ptr, i64, i64, i32, ptr }
%struct.dynamically_allocated_data = type { ptr, ptr, ptr, ptr, ptr, ptr, ptr, ptr, ptr, ptr, ptr, ptr, ptr, ptr }
%struct.PureInfo = type { i32, i32, i32, i64, i64, i64, i64, i64, ptr, ptr, i64, i32, [46 x i8], i32, i32, [46 x i8], i32, ptr, i32, %struct.curl_certinfo, i32, i8 }
%struct.curl_certinfo = type { i32, ptr }
%struct.curl_tlssessioninfo = type { i32, ptr }
%struct.connectdata = type { %struct.Curl_llist_element, ptr, ptr, i64, ptr, ptr, %struct.hostname, ptr, ptr, %struct.hostname, %struct.proxy_info, %struct.proxy_info, [46 x i8], ptr, ptr, ptr, ptr, ptr, %struct.curltime, %struct.curltime, %struct.curltime, [2 x i32], [2 x ptr], [2 x ptr], [2 x ptr], %struct.ssl_primary_config, %struct.ssl_primary_config, %struct.ConnectBits, ptr, ptr, %struct.curltime, i32, i32, %struct.Curl_llist, ptr, ptr, i32, i32, %struct.ntlmdata, %struct.ntlmdata, %union.anon.1, ptr, ptr, i16, i32, i32, i32, i32, i32, i16, i16, i8, i8, i8, i8, i8, i8, i8 }
%struct.hostname = type { ptr, ptr, ptr, ptr }
%struct.proxy_info = type { %struct.hostname, i32, i8, ptr, ptr }
%struct.ConnectBits = type { i32 }
%struct.ntlmdata = type { i32, [8 x i8], i32, ptr }
%union.anon.1 = type { %struct.ftp_conn }
%struct.ftp_conn = type { %struct.pingpong, ptr, ptr, ptr, ptr, ptr, ptr, ptr, i8, i64, ptr, i64, i32, i32, i32, i32, i32, i16, i8, i8, i8, i8, i8 }
%struct.pingpong = type { i64, i8, ptr, i64, i64, %struct.curltime, i64, %struct.dynbuf, %struct.dynbuf, i64, i64, ptr, ptr }
%struct.smb_conn = type { i32, ptr, ptr, ptr, [8 x i8], i32, i16, ptr, i64, i64, i64, i64 }
%struct.andx = type { i8, i8, i16 }
%struct.smb_setup = type <{ i8, %struct.andx, i16, i16, i16, i32, [2 x i16], i32, i32, i16, [1024 x i8] }>

@.str.5 = private unnamed_addr constant [6 x i8] c"Linux\00", align 1
@.str.6 = private unnamed_addr constant [5 x i8] c"curl\00", align 1

; Function Attrs: nounwind uwtable
define internal i32 @smb_send_setup(ptr noundef %0) #0 {
  %2 = alloca i32, align 4
  %3 = alloca ptr, align 8
  %4 = alloca ptr, align 8
  %5 = alloca ptr, align 8
  %6 = alloca %struct.smb_setup, align 1
  %7 = alloca ptr, align 8
  %8 = alloca [21 x i8], align 16
  %9 = alloca [24 x i8], align 16
  %10 = alloca [21 x i8], align 16
  %11 = alloca [24 x i8], align 16
  %12 = alloca i64, align 8
  store ptr %0, ptr %3, align 8
  %13 = load ptr, ptr %3, align 8
  %14 = getelementptr inbounds %struct.Curl_easy, ptr %13, i32 0, i32 4
  %15 = load ptr, ptr %14, align 8
  store ptr %15, ptr %4, align 8
  %16 = load ptr, ptr %4, align 8
  %17 = getelementptr inbounds %struct.connectdata, ptr %16, i32 0, i32 40
  store ptr %17, ptr %5, align 8
  %18 = getelementptr inbounds %struct.smb_setup, ptr %6, i32 0, i32 10
  %19 = getelementptr inbounds [1024 x i8], ptr %18, i64 0, i64 0
  store ptr %19, ptr %7, align 8
  store i64 48, ptr %12, align 8
  %20 = load ptr, ptr %5, align 8
  %21 = getelementptr inbounds %struct.smb_conn, ptr %20, i32 0, i32 1
  %22 = load ptr, ptr %21, align 8
  %23 = call i64 @strlen(ptr noundef %22) #7
  %24 = load ptr, ptr %5, align 8
  %25 = getelementptr inbounds %struct.smb_conn, ptr %24, i32 0, i32 2
  %26 = load ptr, ptr %25, align 8
  %27 = call i64 @strlen(ptr noundef %26) #7
  %28 = add i64 %23, %27
  %29 = load i64, ptr %12, align 8
  %30 = add i64 %29, %28
  store i64 %30, ptr %12, align 8
  %31 = load i64, ptr %12, align 8
  %32 = add i64 %31, 13
  store i64 %32, ptr %12, align 8
  %33 = load i64, ptr %12, align 8
  %34 = icmp ugt i64 %33, 1024
  br i1 %34, label %35, label %36

35:                                               ; preds = %1
  store i32 63, ptr %2, align 4
  br label %133

36:                                               ; preds = %1
  %37 = load ptr, ptr %4, align 8
  %38 = getelementptr inbounds %struct.connectdata, ptr %37, i32 0, i32 14
  %39 = load ptr, ptr %38, align 8
  %40 = getelementptr inbounds [21 x i8], ptr %8, i64 0, i64 0
  %41 = call i32 @Curl_ntlm_core_mk_lm_hash(ptr noundef %39, ptr noundef %40)
  %42 = getelementptr inbounds [21 x i8], ptr %8, i64 0, i64 0
  %43 = load ptr, ptr %5, align 8
  %44 = getelementptr inbounds %struct.smb_conn, ptr %43, i32 0, i32 4
  %45 = getelementptr inbounds [8 x i8], ptr %44, i64 0, i64 0
  %46 = getelementptr inbounds [24 x i8], ptr %9, i64 0, i64 0
  call void @Curl_ntlm_core_lm_resp(ptr noundef %42, ptr noundef %45, ptr noundef %46)
  %47 = load ptr, ptr %4, align 8
  %48 = getelementptr inbounds %struct.connectdata, ptr %47, i32 0, i32 14
  %49 = load ptr, ptr %48, align 8
  %50 = getelementptr inbounds [21 x i8], ptr %10, i64 0, i64 0
  %51 = call i32 @Curl_ntlm_core_mk_nt_hash(ptr noundef %49, ptr noundef %50)
  %52 = getelementptr inbounds [21 x i8], ptr %10, i64 0, i64 0
  %53 = load ptr, ptr %5, align 8
  %54 = getelementptr inbounds %struct.smb_conn, ptr %53, i32 0, i32 4
  %55 = getelementptr inbounds [8 x i8], ptr %54, i64 0, i64 0
  %56 = getelementptr inbounds [24 x i8], ptr %11, i64 0, i64 0
  call void @Curl_ntlm_core_lm_resp(ptr noundef %52, ptr noundef %55, ptr noundef %56)
  call void @llvm.memset.p0.i64(ptr align 1 %6, i8 0, i64 1053, i1 false)
  %57 = getelementptr inbounds %struct.smb_setup, ptr %6, i32 0, i32 0
  store i8 13, ptr %57, align 1
  %58 = getelementptr inbounds %struct.smb_setup, ptr %6, i32 0, i32 1
  %59 = getelementptr inbounds %struct.andx, ptr %58, i32 0, i32 0
  store i8 -1, ptr %59, align 1
  %60 = getelementptr inbounds %struct.smb_setup, ptr %6, i32 0, i32 2
  store i16 -28672, ptr %60, align 1
  %61 = getelementptr inbounds %struct.smb_setup, ptr %6, i32 0, i32 3
  store i16 1, ptr %61, align 1
  %62 = getelementptr inbounds %struct.smb_setup, ptr %6, i32 0, i32 4
  store i16 1, ptr %62, align 1
  %63 = load ptr, ptr %5, align 8
  %64 = getelementptr inbounds %struct.smb_conn, ptr %63, i32 0, i32 5
  %65 = load i32, ptr %64, align 8
  %66 = getelementptr inbounds %struct.smb_setup, ptr %6, i32 0, i32 5
  store i32 %65, ptr %66, align 1
  %67 = getelementptr inbounds %struct.smb_setup, ptr %6, i32 0, i32 8
  store i32 8, ptr %67, align 1
  %68 = getelementptr inbounds %struct.smb_setup, ptr %6, i32 0, i32 6
  %69 = getelementptr inbounds [2 x i16], ptr %68, i64 0, i64 0
  store i16 24, ptr %69, align 1
  %70 = getelementptr inbounds %struct.smb_setup, ptr %6, i32 0, i32 6
  %71 = getelementptr inbounds [2 x i16], ptr %70, i64 0, i64 1
  store i16 24, ptr %71, align 1
  %72 = load ptr, ptr %7, align 8
  %73 = getelementptr inbounds [24 x i8], ptr %9, i64 0, i64 0
  call void @llvm.memcpy.p0.p0.i64(ptr align 1 %72, ptr align 16 %73, i64 24, i1 false)
  %74 = load ptr, ptr %7, align 8
  %75 = getelementptr inbounds i8, ptr %74, i64 24
  store ptr %75, ptr %7, align 8
  %76 = load ptr, ptr %7, align 8
  %77 = getelementptr inbounds [24 x i8], ptr %11, i64 0, i64 0
  call void @llvm.memcpy.p0.p0.i64(ptr align 1 %76, ptr align 16 %77, i64 24, i1 false)
  %78 = load ptr, ptr %7, align 8
  %79 = getelementptr inbounds i8, ptr %78, i64 24
  store ptr %79, ptr %7, align 8
  br label %80

80:                                               ; preds = %36
  %81 = load ptr, ptr %7, align 8
  %82 = load ptr, ptr %5, align 8
  %83 = getelementptr inbounds %struct.smb_conn, ptr %82, i32 0, i32 1
  %84 = load ptr, ptr %83, align 8
  %85 = call ptr @strcpy(ptr noundef %81, ptr noundef %84) #8
  %86 = load ptr, ptr %5, align 8
  %87 = getelementptr inbounds %struct.smb_conn, ptr %86, i32 0, i32 1
  %88 = load ptr, ptr %87, align 8
  %89 = call i64 @strlen(ptr noundef %88) #7
  %90 = add i64 %89, 1
  %91 = load ptr, ptr %7, align 8
  %92 = getelementptr inbounds i8, ptr %91, i64 %90
  store ptr %92, ptr %7, align 8
  br label %93

93:                                               ; preds = %80
  br label %94

94:                                               ; preds = %93
  %95 = load ptr, ptr %7, align 8
  %96 = load ptr, ptr %5, align 8
  %97 = getelementptr inbounds %struct.smb_conn, ptr %96, i32 0, i32 2
  %98 = load ptr, ptr %97, align 8
  %99 = call ptr @strcpy(ptr noundef %95, ptr noundef %98) #8
  %100 = load ptr, ptr %5, align 8
  %101 = getelementptr inbounds %struct.smb_conn, ptr %100, i32 0, i32 2
  %102 = load ptr, ptr %101, align 8
  %103 = call i64 @strlen(ptr noundef %102) #7
  %104 = add i64 %103, 1
  %105 = load ptr, ptr %7, align 8
  %106 = getelementptr inbounds i8, ptr %105, i64 %104
  store ptr %106, ptr %7, align 8
  br label %107

107:                                              ; preds = %94
  br label %108

108:                                              ; preds = %107
  %109 = load ptr, ptr %7, align 8
  %110 = call ptr @strcpy(ptr noundef %109, ptr noundef @.str.5) #8
  %111 = load ptr, ptr %7, align 8
  %112 = getelementptr inbounds i8, ptr %111, i64 6
  store ptr %112, ptr %7, align 8
  br label %113

113:                                              ; preds = %108
  br label %114

114:                                              ; preds = %113
  %115 = load ptr, ptr %7, align 8
  %116 = call ptr @strcpy(ptr noundef %115, ptr noundef @.str.6) #8
  %117 = load ptr, ptr %7, align 8
  %118 = getelementptr inbounds i8, ptr %117, i64 5
  store ptr %118, ptr %7, align 8
  br label %119

119:                                              ; preds = %114
  %120 = load ptr, ptr %7, align 8
  %121 = getelementptr inbounds %struct.smb_setup, ptr %6, i32 0, i32 10
  %122 = getelementptr inbounds [1024 x i8], ptr %121, i64 0, i64 0
  %123 = ptrtoint ptr %120 to i64
  %124 = ptrtoint ptr %122 to i64
  %125 = sub i64 %123, %124
  store i64 %125, ptr %12, align 8
  %126 = load i64, ptr %12, align 8
  %127 = trunc i64 %126 to i16
  %128 = getelementptr inbounds %struct.smb_setup, ptr %6, i32 0, i32 9
  store i16 %127, ptr %128, align 1
  %129 = load ptr, ptr %3, align 8
  %130 = load i64, ptr %12, align 8
  %131 = add i64 29, %130
  %132 = call i32 @smb_send_message(ptr noundef %129, i8 noundef zeroext 115, ptr noundef %6, i64 noundef %131)
  store i32 %132, ptr %2, align 4
  br label %133

133:                                              ; preds = %119, %35
  %134 = load i32, ptr %2, align 4
  ret i32 %134
}