; Function Attrs: nounwind uwtable
define internal fastcc i32 @smb_send_setup(ptr noundef %0) unnamed_addr #0 {
  %2 = alloca %struct.smb_setup, align 1
  %3 = alloca [21 x i8], align 16
  %4 = alloca [24 x i8], align 16
  %5 = alloca [21 x i8], align 16
  %6 = alloca [24 x i8], align 16
  %7 = getelementptr inbounds nuw i8, ptr %0, i64 32
  %8 = load ptr, ptr %7, align 8
  %9 = getelementptr inbounds nuw i8, ptr %8, i64 832
  %10 = load ptr, ptr %9, align 8
  %11 = tail call i64 @strlen(ptr noundef nonnull dereferenceable(1) %10) #13
  %12 = getelementptr inbounds nuw i8, ptr %8, i64 840
  %13 = load ptr, ptr %12, align 8
  %14 = tail call i64 @strlen(ptr noundef nonnull dereferenceable(1) %13) #13
  %15 = add i64 %11, -964
  %16 = add i64 %15, %14
  %17 = icmp ult i64 %16, -1025
  br i1 %17, label %58, label %18

18:                                               ; preds = %1
  %19 = getelementptr inbounds nuw i8, ptr %2, i64 29
  %20 = getelementptr inbounds nuw i8, ptr %8, i64 312
  %21 = load ptr, ptr %20, align 8
  %22 = call i32 @Curl_ntlm_core_mk_lm_hash(ptr noundef %21, ptr noundef nonnull %3) #12
  %23 = getelementptr inbounds nuw i8, ptr %8, i64 856
  call void @Curl_ntlm_core_lm_resp(ptr noundef nonnull %3, ptr noundef nonnull %23, ptr noundef nonnull %4) #12
  %24 = load ptr, ptr %20, align 8
  %25 = call i32 @Curl_ntlm_core_mk_nt_hash(ptr noundef %24, ptr noundef nonnull %5) #12
  call void @Curl_ntlm_core_lm_resp(ptr noundef nonnull %5, ptr noundef nonnull %23, ptr noundef nonnull %6) #12
  %26 = getelementptr inbounds nuw i8, ptr %2, i64 2
  call void @llvm.memset.p0.i64(ptr noundef nonnull align 1 dereferenceable(1053) %26, i8 0, i64 1051, i1 false)
  store i8 13, ptr %2, align 1
  %27 = getelementptr inbounds nuw i8, ptr %2, i64 1
  store i8 -1, ptr %27, align 1
  %28 = getelementptr inbounds nuw i8, ptr %2, i64 5
  store i16 -28672, ptr %28, align 1
  %29 = getelementptr inbounds nuw i8, ptr %2, i64 7
  store i16 1, ptr %29, align 1
  %30 = getelementptr inbounds nuw i8, ptr %2, i64 9
  store i16 1, ptr %30, align 1
  %31 = getelementptr inbounds nuw i8, ptr %8, i64 864
  %32 = load i32, ptr %31, align 8
  %33 = getelementptr inbounds nuw i8, ptr %2, i64 11
  store i32 %32, ptr %33, align 1
  %34 = getelementptr inbounds nuw i8, ptr %2, i64 23
  store i32 8, ptr %34, align 1
  %35 = getelementptr inbounds nuw i8, ptr %2, i64 15
  store i16 24, ptr %35, align 1
  %36 = getelementptr inbounds nuw i8, ptr %2, i64 17
  store i16 24, ptr %36, align 1
  call void @llvm.memcpy.p0.p0.i64(ptr noundef nonnull align 1 dereferenceable(24) %19, ptr noundef nonnull align 16 dereferenceable(24) %4, i64 24, i1 false)
  %37 = getelementptr inbounds nuw i8, ptr %2, i64 53
  call void @llvm.memcpy.p0.p0.i64(ptr noundef nonnull align 1 dereferenceable(24) %37, ptr noundef nonnull align 16 dereferenceable(24) %6, i64 24, i1 false)
  %38 = getelementptr inbounds nuw i8, ptr %2, i64 77
  %39 = load ptr, ptr %9, align 8
  %40 = call ptr @strcpy(ptr noundef nonnull dereferenceable(1) %38, ptr noundef nonnull dereferenceable(1) %39) #12
  %41 = call i64 @strlen(ptr noundef nonnull dereferenceable(1) %39) #13
  %42 = getelementptr i8, ptr %38, i64 %41
  %43 = getelementptr i8, ptr %42, i64 1
  %44 = load ptr, ptr %12, align 8
  %45 = call ptr @strcpy(ptr noundef nonnull dereferenceable(1) %43, ptr noundef nonnull dereferenceable(1) %44) #12
  %46 = call i64 @strlen(ptr noundef nonnull dereferenceable(1) %44) #13
  %47 = getelementptr i8, ptr %43, i64 %46
  %48 = getelementptr i8, ptr %47, i64 1
  call void @llvm.memcpy.p0.p0.i64(ptr noundef nonnull align 1 dereferenceable(6) %48, ptr noundef nonnull align 1 dereferenceable(6) @.str.5, i64 6, i1 false) #12
  %49 = getelementptr i8, ptr %47, i64 7
  call void @llvm.memcpy.p0.p0.i64(ptr noundef nonnull align 1 dereferenceable(5) %49, ptr noundef nonnull align 1 dereferenceable(5) @.str.6, i64 5, i1 false) #12
  %50 = getelementptr i8, ptr %47, i64 12
  %51 = ptrtoint ptr %50 to i64
  %52 = ptrtoint ptr %19 to i64
  %53 = sub i64 %51, %52
  %54 = trunc i64 %53 to i16
  %55 = getelementptr inbounds nuw i8, ptr %2, i64 27
  store i16 %54, ptr %55, align 1
  %56 = add i64 %53, 29
  %57 = call fastcc i32 @smb_send_message(ptr noundef nonnull %0, i8 noundef zeroext 115, ptr noundef nonnull %2, i64 noundef %56)
  br label %58

58:                                               ; preds = %1, %18
  %.0 = phi i32 [ %57, %18 ], [ 63, %1 ]
  ret i32 %.0
}